-----BEGIN CERTIFICATE-----
MIIDnzCCAoegAwIBAgIJANnRztihCot0MA0GCSqGSIb3DQEBCwUAMGYxCzAJBgNV
BAYTAkZSMQ0wCwYDVQQIDARQQUNBMRIwEAYDVQQHDAlNYXJzZWlsbGUxDzANBgNV
BAoMBk0yIEZTSTEPMA0GA1UECwwGVFAgU0lSMRIwEAYDVQQDDAlnb2RhcmQtY2Ew
HhcNMTYxMjAxMTMwNDU2WhcNMTcxMjAxMTMwNDU2WjBmMQswCQYDVQQGEwJGUjEN
MAsGA1UECAwEUEFDQTESMBAGA1UEBwwJTWFyc2VpbGxlMQ8wDQYDVQQKDAZNMiBG
U0kxDzANBgNVBAsMBlRQIFNJUjESMBAGA1UEAwwJZ29kYXJkLWNhMIIBIjANBgkq
hkiG9w0BAQEFAAOCAQ8AMIIBCgKCAQEA3BJYO+v8nVzIssHGbpOJWeH8w4SaoSwM
afNrw2CAHGQziep/zSs/tKC77Z1/tQbu1Ik6I4MA0Pd/lch0R9OXUGS3dvI8E/RN
v1EA+ywvUyGVJErVCzeTw0MZMGV148ewa1B8n17pKjhbMpbbBoagoOCHq7GofGsO
O3kKlnqpAstE2L51rLBCapCStxCiqjW9EqZsDK4K3ZumfVZlkp3yUVr7ajNq8oyT
/hRq+YqRfKv9KkxtoasCxRl6ymGESXAVc4udDVwELYNbQFB1vsTsJp7CFTeJFueQ
QP/mD4ga4WJVN7iXU2veGnu8fqt8ikd1VzpNU9HaGgN0tX3HA8ewGwIDAQABo1Aw
TjAdBgNVHQ4EFgQUrc6FUYxhuP33/meRxIFnNFGd1dMwHwYDVR0jBBgwFoAUrc6F
UYxhuP33/meRxIFnNFGd1dMwDAYDVR0TBAUwAwEB/zANBgkqhkiG9w0BAQsFAAOC
AQEAlygSmF8kw9pBKllTKnnGpxcklMSZsXWDdX1znCMq9HNqG+Smgx+q85v3L682
lkwqfuasXQJ/NpDMAoG2zuhATe9pQlIshtg8vXKRu+LNBZa0OHvnSYuSv/MnTKKS
jyBaGhpdvQlLCfKIDIdKMOzIZa8q7dNeCvkt9tDZsu6nmd26b+LKygluDaB8Ofjc
P3uYRj0mzDFzdewfm2ZD9c6bu2siYK6Fh5/uQJ7wtNQOfqpG01TsagSoqfK8ZTwy
rkrTqLodQqbBnkVoJUeECXLP4chvdtw3rrsv2wpexXM3FEyckclYOgQXLHlGFyuj
mLSdd+NWDXx4L3hubryEC5IbfQ==
-----END CERTIFICATE-----
-----BEGIN CERTIFICATE-----
MIIDpTCCAo2gAwIBAgIJANnRztihCot1MA0GCSqGSIb3DQEBCwUAMGYxCzAJBgNV
BAYTAkZSMQ0wCwYDVQQIDARQQUNBMRIwEAYDVQQHDAlNYXJzZWlsbGUxDzANBgNV
BAoMBk0yIEZTSTEPMA0GA1UECwwGVFAgU0lSMRIwEAYDVQQDDAlnb2RhcmQtY2Ew
HhcNMTYxMjAxMTMwNjEyWhcNMTcxMjAxMTMwNjEyWjBsMQswCQYDVQQGEwJGUjEN
MAsGA1UECAwEUEFDQTESMBAGA1UEBwwJTWFyc2VpbGxlMRUwEwYDVQQKDAxNYXN0
ZXIgMiBGU0kxDzANBgNVBAsMBlRQIFNJUjESMBAGA1UEAwwJR29kYXJkIFRQMIIB
IjANBgkqhkiG9w0BAQEFAAOCAQ8AMIIBCgKCAQEA0ujXTb6Lhy+E7hCppmkNusfY
oS4zkGN3LggacrtLnIiqh5FYiz47EuLI1+0rfJe9e6XfpJSmOnfNAD63vcAwbUUZ
saiOWJfh74qjwnDksEYK9XUCMN4mDriLuaL4S1xTw3mB2rRLvUtPLpX/XRCMYIIx
FRFubOjJ5jhr6dO6oIQmk36JUAq+v8uPNU1gNdiFCPSvHZkZEf5matjgKOCxXhjq
+q+cGHXCLxylZIaqRJtCeEEEW3wBTbgih7W+OZ7jhxOWPqccfEtX/yr+tlKzGfV4
baU78TN8r/dAopKrEpvxmSG3XsQP8Ko6ohJ0Kc+GjX0qWTF9PVtm5J3BZivo9wID
AQABo1AwTjAdBgNVHQ4EFgQUJ+La8NdmSCebZbB8JCZ4twTafYowHwYDVR0jBBgw
FoAUrc6FUYxhuP33/meRxIFnNFGd1dMwDAYDVR0TBAUwAwEB/zANBgkqhkiG9w0B
AQsFAAOCAQEAGoW3MY3HwvzR61qfiJakRrxsAi6uhIdJfzIKkU0IPfZ3bHGYJa9E
4vDnS+zSlctt1PTZmt+KsCFo2EZ3WHE+rOR4zoJc4KGrQczFI0uYGOavpknwVfje
1BJi6FnOZmU43ojzbQrRVnqHM0sVwpY3BEe2ChBlUR8EkmVPK/8V7aWUGFc2HTyj
pvjNA8mPiBbF5vABOjuprTkcru1HcUa9lQF1mBSD6P+fweOC7/60EMRj0GONxzmh
1RgElW5QOqazInX2rPuzlqUBjNtCkihxhjUDxSnL6TIOVpnJAcxKKrKRvFIH5TtV
XlTYSdj+tbHJfb5Gys8mWhg78dgB87MhDw==
-----END CERTIFICATE-----
Certificate:
    Data:
        Version: 3 (0x2)
        Serial Number: 15695553606172969834 (0xd9d1ced8a10a8b6a)
    Signature Algorithm: sha256WithRSAEncryption
        Issuer: C=FR, ST=PACA, O=Master 2 FSI, OU=TP SIR, CN=Godard TP
        Validity
            Not Before: Dec  1 16:04:02 2015 GMT
            Not After : Nov 30 16:04:02 2018 GMT
        Subject: C=FR, ST=PACA, O=Master 2 FSI, OU=TP SIR, CN=Godard TP
        Subject Public Key Info:
            Public Key Algorithm: rsaEncryption
                Public-Key: (2048 bit)
                Modulus:
                    00:d2:e8:d7:4d:be:8b:87:2f:84:ee:10:a9:a6:69:
                    0d:ba:c7:d8:a1:2e:33:90:63:77:2e:08:1a:72:bb:
                    4b:9c:88:aa:87:91:58:8b:3e:3b:12:e2:c8:d7:ed:
                    2b:7c:97:bd:7b:a5:df:a4:94:a6:3a:77:cd:00:3e:
                    b7:bd:c0:30:6d:45:19:b1:a8:8e:58:97:e1:ef:8a:
                    a3:c2:70:e4:b0:46:0a:f5:75:02:30:de:26:0e:b8:
                    8b:b9:a2:f8:4b:5c:53:c3:79:81:da:b4:4b:bd:4b:
                    4f:2e:95:ff:5d:10:8c:60:82:31:15:11:6e:6c:e8:
                    c9:e6:38:6b:e9:d3:ba:a0:84:26:93:7e:89:50:0a:
                    be:bf:cb:8f:35:4d:60:35:d8:85:08:f4:af:1d:99:
                    19:11:fe:66:6a:d8:e0:28:e0:b1:5e:18:ea:fa:af:
                    9c:18:75:c2:2f:1c:a5:64:86:aa:44:9b:42:78:41:
                    04:5b:7c:01:4d:b8:22:87:b5:be:39:9e:e3:87:13:
                    96:3e:a7:1c:7c:4b:57:ff:2a:fe:b6:52:b3:19:f5:
                    78:6d:a5:3b:f1:33:7c:af:f7:40:a2:92:ab:12:9b:
                    f1:99:21:b7:5e:c4:0f:f0:aa:3a:a2:12:74:29:cf:
                    86:8d:7d:2a:59:31:7d:3d:5b:66:e4:9d:c1:66:2b:
                    e8:f7
                Exponent: 65537 (0x10001)
        X509v3 extensions:
            X509v3 Subject Key Identifier: 
                27:E2:DA:F0:D7:66:48:27:9B:65:B0:7C:24:26:78:B7:04:DA:7D:8A
            X509v3 Authority Key Identifier: 
                keyid:27:E2:DA:F0:D7:66:48:27:9B:65:B0:7C:24:26:78:B7:04:DA:7D:8A

            X509v3 Basic Constraints: 
                CA:TRUE
    Signature Algorithm: sha256WithRSAEncryption
         44:f8:66:d8:a4:92:81:c5:91:69:6a:09:ea:52:ef:8f:07:9e:
         e5:c4:02:09:58:7e:28:c3:b3:da:70:67:28:d5:1e:de:38:25:
         59:b4:41:4a:78:47:18:61:11:3c:8b:d9:6d:4c:35:73:dd:7e:
         66:0b:9f:7b:22:55:e7:78:59:1d:fa:3f:0a:e5:81:93:3f:dc:
         9b:23:79:dd:5a:03:75:a6:03:6c:81:92:de:8c:f6:e0:c4:f2:
         d7:42:eb:a1:74:9b:83:5f:b5:13:5c:e3:52:af:74:d6:a8:6d:
         ac:76:d4:d8:62:2e:9c:a9:4a:89:94:70:76:f2:03:d7:59:99:
         e4:8b:4a:a7:a6:a0:17:5f:27:bd:19:9d:12:cf:ed:b7:3c:2c:
         c6:3b:15:ef:49:e3:0d:0d:af:09:95:99:6d:40:92:82:3b:99:
         8b:51:9d:d9:b4:83:ed:a0:a0:cd:b0:72:2e:a5:0c:37:01:ed:
         a0:ee:59:9c:52:11:60:f8:39:8f:95:aa:32:fb:0f:ff:18:d2:
         52:b4:10:74:d9:01:88:f7:e0:79:b7:7e:72:92:ed:46:92:9b:
         44:d4:18:3e:e0:81:75:d6:a1:35:8d:f2:ab:bd:b9:67:82:39:
         19:7b:64:2f:22:97:9f:0e:27:69:25:f6:5e:65:20:2a:f9:a2:
         6a:16:9c:52
-----BEGIN CERTIFICATE-----
MIIDgzCCAmugAwIBAgIJANnRztihCotqMA0GCSqGSIb3DQEBCwUAMFgxCzAJBgNV
BAYTAkZSMQ0wCwYDVQQIDARQQUNBMRUwEwYDVQQKDAxNYXN0ZXIgMiBGU0kxDzAN
BgNVBAsMBlRQIFNJUjESMBAGA1UEAwwJR29kYXJkIFRQMB4XDTE1MTIwMTE2MDQw
MloXDTE4MTEzMDE2MDQwMlowWDELMAkGA1UEBhMCRlIxDTALBgNVBAgMBFBBQ0Ex
FTATBgNVBAoMDE1hc3RlciAyIEZTSTEPMA0GA1UECwwGVFAgU0lSMRIwEAYDVQQD
DAlHb2RhcmQgVFAwggEiMA0GCSqGSIb3DQEBAQUAA4IBDwAwggEKAoIBAQDS6NdN
vouHL4TuEKmmaQ26x9ihLjOQY3cuCBpyu0uciKqHkViLPjsS4sjX7St8l717pd+k
lKY6d80APre9wDBtRRmxqI5Yl+HviqPCcOSwRgr1dQIw3iYOuIu5ovhLXFPDeYHa
tEu9S08ulf9dEIxggjEVEW5s6MnmOGvp07qghCaTfolQCr6/y481TWA12IUI9K8d
mRkR/mZq2OAo4LFeGOr6r5wYdcIvHKVkhqpEm0J4QQRbfAFNuCKHtb45nuOHE5Y+
pxx8S1f/Kv62UrMZ9XhtpTvxM3yv90CikqsSm/GZIbdexA/wqjqiEnQpz4aNfSpZ
MX09W2bkncFmK+j3AgMBAAGjUDBOMB0GA1UdDgQWBBQn4trw12ZIJ5tlsHwkJni3
BNp9ijAfBgNVHSMEGDAWgBQn4trw12ZIJ5tlsHwkJni3BNp9ijAMBgNVHRMEBTAD
AQH/MA0GCSqGSIb3DQEBCwUAA4IBAQBE+GbYpJKBxZFpagnqUu+PB57lxAIJWH4o
w7PacGco1R7eOCVZtEFKeEcYYRE8i9ltTDVz3X5mC597IlXneFkd+j8K5YGTP9yb
I3ndWgN1pgNsgZLejPbgxPLXQuuhdJuDX7UTXONSr3TWqG2sdtTYYi6cqUqJlHB2
8gPXWZnki0qnpqAXXye9GZ0Sz+23PCzGOxXvSeMNDa8JlZltQJKCO5mLUZ3ZtIPt
oKDNsHIupQw3Ae2g7lmcUhFg+DmPlaoy+w//GNJStBB02QGI9+B5t35yku1GkptE
1Bg+4IF11qE1jfKrvblngjkZe2QvIpefDidpJfZeZSAq+aJqFpxS
-----END CERTIFICATE-----
